; Function Attrs: mustprogress nofree nounwind willreturn memory(read, inaccessiblemem: none) uwtable
define noundef i32 @_ZNK6icu_755units22UnitPreferenceMetadata9compareToERKS1_(ptr nocapture noundef nonnull readonly align 8 dereferenceable(208) %this, ptr nocapture noundef nonnull readonly align 8 dereferenceable(208) %other) local_unnamed_addr #6 align 2 {
entry:
  %category = getelementptr inbounds i8, ptr %this, i64 8
  %0 = load ptr, ptr %category, align 8
  %category2 = getelementptr inbounds i8, ptr %other, i64 8
  %1 = load ptr, ptr %category2, align 8
  %call4 = tail call i32 @strcmp(ptr noundef nonnull dereferenceable(1) %0, ptr noundef nonnull dereferenceable(1) %1) #18
  %cmp5 = icmp eq i32 %call4, 0
  br i1 %cmp5, label %if.end, label %if.end16

if.end:                                           ; preds = %entry
  %usage = getelementptr inbounds i8, ptr %this, i64 72
  %2 = load ptr, ptr %usage, align 8
  %usage7 = getelementptr inbounds i8, ptr %other, i64 72
  %3 = load ptr, ptr %usage7, align 8
  %call9 = tail call i32 @strcmp(ptr noundef nonnull dereferenceable(1) %2, ptr noundef nonnull dereferenceable(1) %3) #18
  %cmp10 = icmp eq i32 %call9, 0
  br i1 %cmp10, label %if.then11, label %if.end16

if.then11:                                        ; preds = %if.end
  %region = getelementptr inbounds i8, ptr %this, i64 136
  %4 = load ptr, ptr %region, align 8
  %region13 = getelementptr inbounds i8, ptr %other, i64 136
  %5 = load ptr, ptr %region13, align 8
  %call15 = tail call i32 @strcmp(ptr noundef nonnull dereferenceable(1) %4, ptr noundef nonnull dereferenceable(1) %5) #18
  br label %if.end16

if.end16:                                         ; preds = %entry, %if.then11, %if.end
  %cmp.1 = phi i32 [ %call15, %if.then11 ], [ %call9, %if.end ], [ %call4, %entry ]
  ret i32 %cmp.1
}